; Function Attrs: nofree nounwind uwtable
define range(i32 0, 2) i32 @Abc_NtkFxCheck(ptr noundef readonly captures(none) %0) local_unnamed_addr #3 {
  %2 = getelementptr inbounds nuw i8, ptr %0, i64 32
  %3 = load ptr, ptr %2, align 8, !tbaa !12
  %4 = getelementptr i8, ptr %3, i64 4
  %.val = load i32, ptr %4, align 4, !tbaa !28
  %5 = icmp sgt i32 %.val, 0
  br i1 %5, label %.lr.ph, label %.critedge

.lr.ph:                                           ; preds = %1
  %6 = getelementptr i8, ptr %3, i64 8
  %.val13.val = load ptr, ptr %6, align 8, !tbaa !30
  %wide.trip.count = zext nneg i32 %.val to i64
  br label %7

7:                                                ; preds = %.lr.ph, %Vec_IntCheckUniqueSmall.exit.thread
  %indvars.iv = phi i64 [ 0, %.lr.ph ], [ %indvars.iv.next, %Vec_IntCheckUniqueSmall.exit.thread ]
  %8 = getelementptr inbounds nuw ptr, ptr %.val13.val, i64 %indvars.iv
  %9 = load ptr, ptr %8, align 8, !tbaa !31
  %10 = icmp eq ptr %9, null
  br i1 %10, label %Vec_IntCheckUniqueSmall.exit.thread, label %11

11:                                               ; preds = %7
  %12 = getelementptr i8, ptr %9, i64 20
  %.val14 = load i32, ptr %12, align 4
  %13 = and i32 %.val14, 15
  %.not = icmp eq i32 %13, 7
  br i1 %.not, label %14, label %Vec_IntCheckUniqueSmall.exit.thread

14:                                               ; preds = %11
  %15 = getelementptr inbounds nuw i8, ptr %9, i64 28
  %16 = load i32, ptr %15, align 4, !tbaa !36
  %17 = icmp sgt i32 %16, 0
  br i1 %17, label %.lr.ph17.i, label %Vec_IntCheckUniqueSmall.exit.thread

.lr.ph17.i:                                       ; preds = %14
  %18 = getelementptr i8, ptr %9, i64 32
  %19 = zext nneg i32 %16 to i64
  br label %20

.loopexit.i:                                      ; preds = %25, %20
  %indvars.iv.next.i = add nuw nsw i64 %indvars.iv.i, 1
  %exitcond26.not.i = icmp eq i64 %indvars.iv.next23.i, %19
  br i1 %exitcond26.not.i, label %Vec_IntCheckUniqueSmall.exit.thread, label %20, !llvm.loop !59

20:                                               ; preds = %.loopexit.i, %.lr.ph17.i
  %indvars.iv22.i = phi i64 [ 0, %.lr.ph17.i ], [ %indvars.iv.next23.i, %.loopexit.i ]
  %indvars.iv.i = phi i64 [ 1, %.lr.ph17.i ], [ %indvars.iv.next.i, %.loopexit.i ]
  %indvars.iv.next23.i = add nuw nsw i64 %indvars.iv22.i, 1
  %21 = icmp samesign ult i64 %indvars.iv.next23.i, %19
  br i1 %21, label %.lr.ph.i, label %.loopexit.i

.lr.ph.i:                                         ; preds = %20
  %22 = load ptr, ptr %18, align 8, !tbaa !38
  %23 = getelementptr inbounds nuw i32, ptr %22, i64 %indvars.iv22.i
  %24 = load i32, ptr %23, align 4, !tbaa !39
  br label %26

25:                                               ; preds = %26
  %indvars.iv.next20.i = add nuw nsw i64 %indvars.iv19.i, 1
  %exitcond.not.i = icmp eq i64 %indvars.iv.next20.i, %19
  br i1 %exitcond.not.i, label %.loopexit.i, label %26, !llvm.loop !60

26:                                               ; preds = %25, %.lr.ph.i
  %indvars.iv19.i = phi i64 [ %indvars.iv.i, %.lr.ph.i ], [ %indvars.iv.next20.i, %25 ]
  %27 = getelementptr inbounds nuw i32, ptr %22, i64 %indvars.iv19.i
  %28 = load i32, ptr %27, align 4, !tbaa !39
  %29 = icmp eq i32 %24, %28
  br i1 %29, label %Vec_IntCheckUniqueSmall.exit, label %25

Vec_IntCheckUniqueSmall.exit:                     ; preds = %26
  %30 = getelementptr inbounds nuw i8, ptr %9, i64 28
  %31 = trunc nuw nsw i64 %indvars.iv to i32
  %32 = tail call i32 (ptr, ...) @printf(ptr noundef nonnull dereferenceable(1) @.str, i32 noundef %31)
  %.val6.i = load i32, ptr %30, align 4, !tbaa !36
  %33 = tail call i32 (ptr, ...) @printf(ptr noundef nonnull dereferenceable(1) @.str.5, i32 noundef %.val6.i)
  %.val8.i = load i32, ptr %30, align 4, !tbaa !36
  %34 = icmp sgt i32 %.val8.i, 0
  br i1 %34, label %.lr.ph.i15, label %Vec_IntPrint.exit

.lr.ph.i15:                                       ; preds = %Vec_IntCheckUniqueSmall.exit, %.lr.ph.i15
  %indvars.iv.i16 = phi i64 [ %indvars.iv.next.i17, %.lr.ph.i15 ], [ 0, %Vec_IntCheckUniqueSmall.exit ]
  %.val7.i = load ptr, ptr %18, align 8, !tbaa !38
  %35 = getelementptr inbounds nuw i32, ptr %.val7.i, i64 %indvars.iv.i16
  %36 = load i32, ptr %35, align 4, !tbaa !39
  %37 = tail call i32 (ptr, ...) @printf(ptr noundef nonnull dereferenceable(1) @.str.6, i32 noundef %36)
  %indvars.iv.next.i17 = add nuw nsw i64 %indvars.iv.i16, 1
  %.val.i = load i32, ptr %30, align 4, !tbaa !36
  %38 = sext i32 %.val.i to i64
  %39 = icmp slt i64 %indvars.iv.next.i17, %38
  br i1 %39, label %.lr.ph.i15, label %Vec_IntPrint.exit, !llvm.loop !61

Vec_IntPrint.exit:                                ; preds = %.lr.ph.i15, %Vec_IntCheckUniqueSmall.exit
  %puts.i = tail call i32 @puts(ptr nonnull dereferenceable(1) @str)
  br label %.critedge

Vec_IntCheckUniqueSmall.exit.thread:              ; preds = %.loopexit.i, %14, %11, %7
  %indvars.iv.next = add nuw nsw i64 %indvars.iv, 1
  %exitcond.not = icmp eq i64 %indvars.iv.next, %wide.trip.count
  br i1 %exitcond.not, label %.critedge, label %7, !llvm.loop !62

.critedge:                                        ; preds = %Vec_IntCheckUniqueSmall.exit.thread, %1, %Vec_IntPrint.exit
  %.010 = phi i32 [ 0, %Vec_IntPrint.exit ], [ 1, %1 ], [ 1, %Vec_IntCheckUniqueSmall.exit.thread ]
  ret i32 %.010
}